target datalayout = "e-m:e-p270:32:32-p271:32:32-p272:64:64-i64:64-i128:128-f80:128-n8:16:32:64-S128"
target triple = "x86_64-pc-linux-gnu"

%struct.hf_register_info = type { ptr, %struct._header_field_info }
%struct._header_field_info = type { ptr, ptr, i32, i32, ptr, i64, ptr, i32, i32, i32, i32, ptr }

@proto_register_mausb.oui_hf = internal global [1 x %struct.hf_register_info] [%struct.hf_register_info { ptr @hf_llc_mausb_pid, %struct._header_field_info { ptr @.str.166, ptr @.str.167, i32 5, i32 2, ptr @mausb_pid_string, i64 0, ptr null, i32 -1, i32 0, i32 0, i32 -1, ptr null } }], align 16
@proto_register_mausb.ett = internal global [10 x ptr] [ptr @ett_mausb, ptr @ett_mausb_flags, ptr @ett_mausb_ep_handle, ptr @ett_mausb_tflags, ptr @ett_mausb_iflags, ptr @ett_mausb_present_time, ptr @ett_mausb_timestamp, ptr @ett_mgmt, ptr @ett_dev_cap, ptr @ett_clear_transfers_block], align 16
@.str.183 = private unnamed_addr constant [19 x i8] c"Media Agnostic USB\00", align 1
@.str.184 = private unnamed_addr constant [6 x i8] c"MAUSB\00", align 1
@.str.185 = private unnamed_addr constant [6 x i8] c"mausb\00", align 1
@proto_mausb = internal global i32 0, align 4
@.str.186 = private unnamed_addr constant [12 x i8] c"llc.wfa_pid\00", align 1
@.str.187 = private unnamed_addr constant [16 x i8] c"LLC WFA OUI PID\00", align 1
@mausb_tcp_handle = internal global ptr null, align 8
@.str.188 = private unnamed_addr constant [10 x i8] c"mausb.pkt\00", align 1
@mausb_pkt_handle = internal global ptr null, align 8

; Function Attrs: null_pointer_is_valid sspstrong uwtable
define hidden void @proto_register_mausb() #1 {
  %1 = alloca ptr, align 8
  call void @llvm.lifetime.start.p0(i64 8, ptr %1) #7
  %2 = call i32 @proto_register_protocol(ptr noundef @.str.183, ptr noundef @.str.184, ptr noundef @.str.185)
  store i32 %2, ptr @proto_mausb, align 4
  %3 = load i32, ptr @proto_mausb, align 4
  call void @proto_register_field_array(i32 noundef %3, ptr noundef @proto_register_mausb.hf, i32 noundef 46)
  %4 = load i32, ptr @proto_mausb, align 4
  call void @proto_register_field_array(i32 noundef %4, ptr noundef @proto_register_mausb.hf_cap, i32 noundef 12)
  %5 = load i32, ptr @proto_mausb, align 4
  call void @proto_register_field_array(i32 noundef %5, ptr noundef @proto_register_mausb.hf_ep_handle, i32 noundef 14)
  %6 = load i32, ptr @proto_mausb, align 4
  call void @proto_register_field_array(i32 noundef %6, ptr noundef @proto_register_mausb.hf_cancel_transfer, i32 noundef 17)
  call void @proto_register_subtree_array(ptr noundef @proto_register_mausb.ett, i32 noundef 10)
  %7 = load i32, ptr @proto_mausb, align 4
  %8 = call ptr @expert_register_protocol(i32 noundef %7)
  store ptr %8, ptr %1, align 8
  %9 = load ptr, ptr %1, align 8
  call void @expert_register_field_array(ptr noundef %9, ptr noundef @proto_register_mausb.ei, i32 noundef 8)
  %10 = load i32, ptr @proto_mausb, align 4
  call void @llc_add_oui(i32 noundef 5271450, ptr noundef @.str.186, ptr noundef @.str.187, ptr noundef @proto_register_mausb.oui_hf, i32 noundef %10)
  %11 = load i32, ptr @proto_mausb, align 4
  %12 = call ptr @register_dissector(ptr noundef @.str.185, ptr noundef @dissect_mausb, i32 noundef %11)
  store ptr %12, ptr @mausb_tcp_handle, align 8
  %13 = load i32, ptr @proto_mausb, align 4
  %14 = call ptr @register_dissector(ptr noundef @.str.188, ptr noundef @dissect_mausb_pkt, i32 noundef %13)
  store ptr %14, ptr @mausb_pkt_handle, align 8
  call void @llvm.lifetime.end.p0(i64 8, ptr %1) #7
  ret void
}