; Function Attrs: null_pointer_is_valid sspstrong uwtable
define hidden void @proto_register_mausb() local_unnamed_addr #3 {
  %1 = tail call i32 @proto_register_protocol(ptr noundef nonnull @.str.183, ptr noundef nonnull @.str.184, ptr noundef nonnull @.str.185)
  store i32 %1, ptr @proto_mausb, align 4
  tail call void @proto_register_field_array(i32 noundef %1, ptr noundef nonnull @proto_register_mausb.hf, i32 noundef 46)
  %2 = load i32, ptr @proto_mausb, align 4
  tail call void @proto_register_field_array(i32 noundef %2, ptr noundef nonnull @proto_register_mausb.hf_cap, i32 noundef 12)
  %3 = load i32, ptr @proto_mausb, align 4
  tail call void @proto_register_field_array(i32 noundef %3, ptr noundef nonnull @proto_register_mausb.hf_ep_handle, i32 noundef 14)
  %4 = load i32, ptr @proto_mausb, align 4
  tail call void @proto_register_field_array(i32 noundef %4, ptr noundef nonnull @proto_register_mausb.hf_cancel_transfer, i32 noundef 17)
  tail call void @proto_register_subtree_array(ptr noundef nonnull @proto_register_mausb.ett, i32 noundef 10)
  %5 = load i32, ptr @proto_mausb, align 4
  %6 = tail call ptr @expert_register_protocol(i32 noundef %5)
  tail call void @expert_register_field_array(ptr noundef %6, ptr noundef nonnull @proto_register_mausb.ei, i32 noundef 8)
  %7 = load i32, ptr @proto_mausb, align 4
  tail call void @llc_add_oui(i32 noundef 5271450, ptr noundef nonnull @.str.186, ptr noundef nonnull @.str.187, ptr noundef nonnull @proto_register_mausb.oui_hf, i32 noundef %7)
  %8 = load i32, ptr @proto_mausb, align 4
  %9 = tail call ptr @register_dissector(ptr noundef nonnull @.str.185, ptr noundef nonnull @dissect_mausb, i32 noundef %8)
  store ptr %9, ptr @mausb_tcp_handle, align 8
  %10 = load i32, ptr @proto_mausb, align 4
  %11 = tail call ptr @register_dissector(ptr noundef nonnull @.str.188, ptr noundef nonnull @dissect_mausb_pkt, i32 noundef %10)
  store ptr %11, ptr @mausb_pkt_handle, align 8
  ret void
}